target datalayout = "e-m:e-p270:32:32-p271:32:32-p272:64:64-i64:64-i128:128-f80:128-n8:16:32:64-S128"
target triple = "x86_64-pc-linux-gnu"

@.str.1 = private unnamed_addr constant [2 x i8] c"\0A\00", align 1
@.str.18 = private unnamed_addr constant [2 x i8] c":\00", align 1
@.str.25 = private unnamed_addr constant [3 x i8] c"%s\00", align 1
@.str.133 = private unnamed_addr constant [8 x i8] c"Shared \00", align 1
@.str.134 = private unnamed_addr constant [11 x i8] c"Requested \00", align 1
@.str.135 = private unnamed_addr constant [23 x i8] c"Signature Algorithms: \00", align 1
@.str.136 = private unnamed_addr constant [19 x i8] c"rsa_pss_pss_sha256\00", align 1
@.str.137 = private unnamed_addr constant [19 x i8] c"rsa_pss_pss_sha384\00", align 1
@.str.138 = private unnamed_addr constant [19 x i8] c"rsa_pss_pss_sha512\00", align 1
@.str.139 = private unnamed_addr constant [29 x i8] c"ecdsa_brainpoolP256r1_sha256\00", align 1
@.str.140 = private unnamed_addr constant [29 x i8] c"ecdsa_brainpoolP384r1_sha384\00", align 1
@.str.141 = private unnamed_addr constant [29 x i8] c"ecdsa_brainpoolP512r1_sha512\00", align 1
@.str.142 = private unnamed_addr constant [7 x i8] c"0x%02X\00", align 1
@.str.143 = private unnamed_addr constant [4 x i8] c"+%s\00", align 1
@.str.144 = private unnamed_addr constant [8 x i8] c"+0x%02X\00", align 1
@.str.145 = private unnamed_addr constant [4 x i8] c"RSA\00", align 1
@.str.146 = private unnamed_addr constant [8 x i8] c"RSA-PSS\00", align 1
@.str.147 = private unnamed_addr constant [4 x i8] c"DSA\00", align 1
@.str.148 = private unnamed_addr constant [6 x i8] c"ECDSA\00", align 1
@.str.149 = private unnamed_addr constant [8 x i8] c"ed25519\00", align 1
@.str.150 = private unnamed_addr constant [6 x i8] c"ed448\00", align 1
@.str.151 = private unnamed_addr constant [9 x i8] c"gost2001\00", align 1
@.str.152 = private unnamed_addr constant [13 x i8] c"gost2012_256\00", align 1
@.str.153 = private unnamed_addr constant [13 x i8] c"gost2012_512\00", align 1

; Function Attrs: nounwind uwtable
define internal ptr @get_sigtype(i32 noundef %0) #0 {
  %2 = alloca ptr, align 8
  %3 = alloca i32, align 4
  store i32 %0, ptr %3, align 4, !tbaa !3
  %4 = load i32, ptr %3, align 4, !tbaa !3
  switch i32 %4, label %14 [
    i32 6, label %5
    i32 912, label %6
    i32 116, label %7
    i32 408, label %8
    i32 1087, label %9
    i32 1088, label %10
    i32 811, label %11
    i32 979, label %12
    i32 980, label %13
  ]

5:                                                ; preds = %1
  store ptr @.str.145, ptr %2, align 8
  br label %17

6:                                                ; preds = %1
  store ptr @.str.146, ptr %2, align 8
  br label %17

7:                                                ; preds = %1
  store ptr @.str.147, ptr %2, align 8
  br label %17

8:                                                ; preds = %1
  store ptr @.str.148, ptr %2, align 8
  br label %17

9:                                                ; preds = %1
  store ptr @.str.149, ptr %2, align 8
  br label %17

10:                                               ; preds = %1
  store ptr @.str.150, ptr %2, align 8
  br label %17

11:                                               ; preds = %1
  store ptr @.str.151, ptr %2, align 8
  br label %17

12:                                               ; preds = %1
  store ptr @.str.152, ptr %2, align 8
  br label %17

13:                                               ; preds = %1
  store ptr @.str.153, ptr %2, align 8
  br label %17

14:                                               ; preds = %1
  %15 = load i32, ptr %3, align 4, !tbaa !3
  %16 = call ptr @OBJ_nid2sn(i32 noundef %15)
  store ptr %16, ptr %2, align 8
  br label %17

17:                                               ; preds = %14, %13, %12, %11, %10, %9, %8, %7, %6, %5
  %18 = load ptr, ptr %2, align 8
  ret ptr %18
}

; Function Attrs: nounwind uwtable
define internal i32 @do_print_sigalgs(ptr noundef %0, ptr noundef %1, i32 noundef %2) #0 {
  %4 = alloca i32, align 4
  %5 = alloca ptr, align 8
  %6 = alloca ptr, align 8
  %7 = alloca i32, align 4
  %8 = alloca i32, align 4
  %9 = alloca i32, align 4
  %10 = alloca i32, align 4
  %11 = alloca i32, align 4
  %12 = alloca i32, align 4
  %13 = alloca i32, align 4
  %14 = alloca i8, align 1
  %15 = alloca i8, align 1
  %16 = alloca ptr, align 8
  store ptr %0, ptr %5, align 8, !tbaa !14
  store ptr %1, ptr %6, align 8, !tbaa !27
  store i32 %2, ptr %7, align 4, !tbaa !3
  call void @llvm.lifetime.start.p0(i64 4, ptr %8) #10
  call void @llvm.lifetime.start.p0(i64 4, ptr %9) #10
  call void @llvm.lifetime.start.p0(i64 4, ptr %10) #10
  %17 = load ptr, ptr %6, align 8, !tbaa !27
  %18 = call i32 @SSL_is_server(ptr noundef %17)
  %19 = icmp ne i32 %18, 0
  %20 = select i1 %19, i32 0, i32 1
  store i32 %20, ptr %10, align 4, !tbaa !3
  %21 = load i32, ptr %7, align 4, !tbaa !3
  %22 = icmp ne i32 %21, 0
  br i1 %22, label %23, label %26

23:                                               ; preds = %3
  %24 = load ptr, ptr %6, align 8, !tbaa !27
  %25 = call i32 @SSL_get_shared_sigalgs(ptr noundef %24, i32 noundef 0, ptr noundef null, ptr noundef null, ptr noundef null, ptr noundef null, ptr noundef null)
  store i32 %25, ptr %9, align 4, !tbaa !3
  br label %29

26:                                               ; preds = %3
  %27 = load ptr, ptr %6, align 8, !tbaa !27
  %28 = call i32 @SSL_get_sigalgs(ptr noundef %27, i32 noundef -1, ptr noundef null, ptr noundef null, ptr noundef null, ptr noundef null, ptr noundef null)
  store i32 %28, ptr %9, align 4, !tbaa !3
  br label %29

29:                                               ; preds = %26, %23
  %30 = load i32, ptr %9, align 4, !tbaa !3
  %31 = icmp eq i32 %30, 0
  br i1 %31, label %32, label %33

32:                                               ; preds = %29
  store i32 1, ptr %4, align 4
  store i32 1, ptr %11, align 4
  br label %135

33:                                               ; preds = %29
  %34 = load i32, ptr %7, align 4, !tbaa !3
  %35 = icmp ne i32 %34, 0
  br i1 %35, label %36, label %39

36:                                               ; preds = %33
  %37 = load ptr, ptr %5, align 8, !tbaa !14
  %38 = call i32 @BIO_puts(ptr noundef %37, ptr noundef @.str.133)
  br label %39

39:                                               ; preds = %36, %33
  %40 = load i32, ptr %10, align 4, !tbaa !3
  %41 = icmp ne i32 %40, 0
  br i1 %41, label %42, label %45

42:                                               ; preds = %39
  %43 = load ptr, ptr %5, align 8, !tbaa !14
  %44 = call i32 @BIO_puts(ptr noundef %43, ptr noundef @.str.134)
  br label %45

45:                                               ; preds = %42, %39
  %46 = load ptr, ptr %5, align 8, !tbaa !14
  %47 = call i32 @BIO_puts(ptr noundef %46, ptr noundef @.str.135)
  store i32 0, ptr %8, align 4, !tbaa !3
  br label %48

48:                                               ; preds = %129, %45
  %49 = load i32, ptr %8, align 4, !tbaa !3
  %50 = load i32, ptr %9, align 4, !tbaa !3
  %51 = icmp slt i32 %49, %50
  br i1 %51, label %52, label %132

52:                                               ; preds = %48
  call void @llvm.lifetime.start.p0(i64 4, ptr %12) #10
  call void @llvm.lifetime.start.p0(i64 4, ptr %13) #10
  call void @llvm.lifetime.start.p0(i64 1, ptr %14) #10
  call void @llvm.lifetime.start.p0(i64 1, ptr %15) #10
  call void @llvm.lifetime.start.p0(i64 8, ptr %16) #10
  store ptr null, ptr %16, align 8, !tbaa !21
  %53 = load i32, ptr %7, align 4, !tbaa !3
  %54 = icmp ne i32 %53, 0
  br i1 %54, label %55, label %59

55:                                               ; preds = %52
  %56 = load ptr, ptr %6, align 8, !tbaa !27
  %57 = load i32, ptr %8, align 4, !tbaa !3
  %58 = call i32 @SSL_get_shared_sigalgs(ptr noundef %56, i32 noundef %57, ptr noundef %13, ptr noundef %12, ptr noundef null, ptr noundef %15, ptr noundef %14)
  br label %63

59:                                               ; preds = %52
  %60 = load ptr, ptr %6, align 8, !tbaa !27
  %61 = load i32, ptr %8, align 4, !tbaa !3
  %62 = call i32 @SSL_get_sigalgs(ptr noundef %60, i32 noundef %61, ptr noundef %13, ptr noundef %12, ptr noundef null, ptr noundef %15, ptr noundef %14)
  br label %63

63:                                               ; preds = %59, %55
  %64 = load i32, ptr %8, align 4, !tbaa !3
  %65 = icmp ne i32 %64, 0
  br i1 %65, label %66, label %69

66:                                               ; preds = %63
  %67 = load ptr, ptr %5, align 8, !tbaa !14
  %68 = call i32 @BIO_puts(ptr noundef %67, ptr noundef @.str.18)
  br label %69

69:                                               ; preds = %66, %63
  %70 = load i8, ptr %15, align 1, !tbaa !29
  %71 = zext i8 %70 to i32
  %72 = load i8, ptr %14, align 1, !tbaa !29
  %73 = zext i8 %72 to i32
  %74 = shl i32 %73, 8
  %75 = or i32 %71, %74
  switch i32 %75, label %94 [
    i32 2057, label %76
    i32 2058, label %79
    i32 2059, label %82
    i32 2074, label %85
    i32 2075, label %88
    i32 2076, label %91
  ]

76:                                               ; preds = %69
  %77 = load ptr, ptr %5, align 8, !tbaa !14
  %78 = call i32 @BIO_puts(ptr noundef %77, ptr noundef @.str.136)
  store i32 4, ptr %11, align 4
  br label %126

79:                                               ; preds = %69
  %80 = load ptr, ptr %5, align 8, !tbaa !14
  %81 = call i32 @BIO_puts(ptr noundef %80, ptr noundef @.str.137)
  store i32 4, ptr %11, align 4
  br label %126

82:                                               ; preds = %69
  %83 = load ptr, ptr %5, align 8, !tbaa !14
  %84 = call i32 @BIO_puts(ptr noundef %83, ptr noundef @.str.138)
  store i32 4, ptr %11, align 4
  br label %126

85:                                               ; preds = %69
  %86 = load ptr, ptr %5, align 8, !tbaa !14
  %87 = call i32 @BIO_puts(ptr noundef %86, ptr noundef @.str.139)
  store i32 4, ptr %11, align 4
  br label %126

88:                                               ; preds = %69
  %89 = load ptr, ptr %5, align 8, !tbaa !14
  %90 = call i32 @BIO_puts(ptr noundef %89, ptr noundef @.str.140)
  store i32 4, ptr %11, align 4
  br label %126

91:                                               ; preds = %69
  %92 = load ptr, ptr %5, align 8, !tbaa !14
  %93 = call i32 @BIO_puts(ptr noundef %92, ptr noundef @.str.141)
  store i32 4, ptr %11, align 4
  br label %126

94:                                               ; preds = %69
  %95 = load i32, ptr %13, align 4, !tbaa !3
  %96 = call ptr @get_sigtype(i32 noundef %95)
  store ptr %96, ptr %16, align 8, !tbaa !21
  %97 = load ptr, ptr %16, align 8, !tbaa !21
  %98 = icmp ne ptr %97, null
  br i1 %98, label %99, label %103

99:                                               ; preds = %94
  %100 = load ptr, ptr %5, align 8, !tbaa !14
  %101 = load ptr, ptr %16, align 8, !tbaa !21
  %102 = call i32 (ptr, ptr, ...) @BIO_printf(ptr noundef %100, ptr noundef @.str.25, ptr noundef %101)
  br label %108

103:                                              ; preds = %94
  %104 = load ptr, ptr %5, align 8, !tbaa !14
  %105 = load i8, ptr %15, align 1, !tbaa !29
  %106 = zext i8 %105 to i32
  %107 = call i32 (ptr, ptr, ...) @BIO_printf(ptr noundef %104, ptr noundef @.str.142, i32 noundef %106)
  br label %108

108:                                              ; preds = %103, %99
  %109 = load i32, ptr %12, align 4, !tbaa !3
  %110 = icmp ne i32 %109, 0
  br i1 %110, label %111, label %116

111:                                              ; preds = %108
  %112 = load ptr, ptr %5, align 8, !tbaa !14
  %113 = load i32, ptr %12, align 4, !tbaa !3
  %114 = call ptr @OBJ_nid2sn(i32 noundef %113)
  %115 = call i32 (ptr, ptr, ...) @BIO_printf(ptr noundef %112, ptr noundef @.str.143, ptr noundef %114)
  br label %125

116:                                              ; preds = %108
  %117 = load ptr, ptr %16, align 8, !tbaa !21
  %118 = icmp eq ptr %117, null
  br i1 %118, label %119, label %124

119:                                              ; preds = %116
  %120 = load ptr, ptr %5, align 8, !tbaa !14
  %121 = load i8, ptr %14, align 1, !tbaa !29
  %122 = zext i8 %121 to i32
  %123 = call i32 (ptr, ptr, ...) @BIO_printf(ptr noundef %120, ptr noundef @.str.144, i32 noundef %122)
  br label %124

124:                                              ; preds = %119, %116
  br label %125

125:                                              ; preds = %124, %111
  store i32 0, ptr %11, align 4
  br label %126

126:                                              ; preds = %125, %91, %88, %85, %82, %79, %76
  call void @llvm.lifetime.end.p0(i64 8, ptr %16) #10
  call void @llvm.lifetime.end.p0(i64 1, ptr %15) #10
  call void @llvm.lifetime.end.p0(i64 1, ptr %14) #10
  call void @llvm.lifetime.end.p0(i64 4, ptr %13) #10
  call void @llvm.lifetime.end.p0(i64 4, ptr %12) #10
  %127 = load i32, ptr %11, align 4
  switch i32 %127, label %137 [
    i32 0, label %128
    i32 4, label %129
  ]

128:                                              ; preds = %126
  br label %129

129:                                              ; preds = %128, %126
  %130 = load i32, ptr %8, align 4, !tbaa !3
  %131 = add nsw i32 %130, 1
  store i32 %131, ptr %8, align 4, !tbaa !3
  br label %48, !llvm.loop !32

132:                                              ; preds = %48
  %133 = load ptr, ptr %5, align 8, !tbaa !14
  %134 = call i32 @BIO_puts(ptr noundef %133, ptr noundef @.str.1)
  store i32 1, ptr %4, align 4
  store i32 1, ptr %11, align 4
  br label %135

135:                                              ; preds = %132, %32
  call void @llvm.lifetime.end.p0(i64 4, ptr %10) #10
  call void @llvm.lifetime.end.p0(i64 4, ptr %9) #10
  call void @llvm.lifetime.end.p0(i64 4, ptr %8) #10
  %136 = load i32, ptr %4, align 4
  ret i32 %136

137:                                              ; preds = %126
  unreachable
}