; Function Attrs: nounwind uwtable
define internal fastcc void @do_print_sigalgs(ptr noundef %0, ptr noundef %1, i32 noundef range(i32 0, 2) %2) unnamed_addr #0 {
  %4 = alloca i32, align 4
  %5 = alloca i32, align 4
  %6 = alloca i8, align 1
  %7 = alloca i8, align 1
  %8 = tail call i32 @SSL_is_server(ptr noundef %1) #6
  %.not = icmp eq i32 %8, 0
  %.not37 = icmp eq i32 %2, 0
  br i1 %.not37, label %9, label %.thread

9:                                                ; preds = %3
  %10 = tail call i32 @SSL_get_sigalgs(ptr noundef %1, i32 noundef -1, ptr noundef null, ptr noundef null, ptr noundef null, ptr noundef null, ptr noundef null) #6
  %11 = icmp eq i32 %10, 0
  br i1 %11, label %74, label %15

.thread:                                          ; preds = %3
  %12 = tail call i32 @SSL_get_shared_sigalgs(ptr noundef %1, i32 noundef 0, ptr noundef null, ptr noundef null, ptr noundef null, ptr noundef null, ptr noundef null) #6
  %13 = icmp eq i32 %12, 0
  br i1 %13, label %74, label %.thread43

.thread43:                                        ; preds = %.thread
  %14 = tail call i32 @BIO_puts(ptr noundef %0, ptr noundef nonnull @.str.133) #6
  br label %15

15:                                               ; preds = %9, %.thread43
  %.0344246 = phi i32 [ %12, %.thread43 ], [ %10, %9 ]
  br i1 %.not, label %16, label %18

16:                                               ; preds = %15
  %17 = tail call i32 @BIO_puts(ptr noundef %0, ptr noundef nonnull @.str.134) #6
  br label %18

18:                                               ; preds = %16, %15
  %19 = tail call i32 @BIO_puts(ptr noundef %0, ptr noundef nonnull @.str.135) #6
  %20 = icmp sgt i32 %.0344246, 0
  br i1 %20, label %.lr.ph, label %._crit_edge

.lr.ph:                                           ; preds = %18, %.thread57
  %.03552 = phi i32 [ %72, %.thread57 ], [ 0, %18 ]
  call void @llvm.lifetime.start.p0(i64 4, ptr nonnull %4) #6
  call void @llvm.lifetime.start.p0(i64 4, ptr nonnull %5) #6
  call void @llvm.lifetime.start.p0(i64 1, ptr nonnull %6) #6
  call void @llvm.lifetime.start.p0(i64 1, ptr nonnull %7) #6
  br i1 %.not37, label %23, label %21

21:                                               ; preds = %.lr.ph
  %22 = call i32 @SSL_get_shared_sigalgs(ptr noundef %1, i32 noundef %.03552, ptr noundef nonnull %5, ptr noundef nonnull %4, ptr noundef null, ptr noundef nonnull %7, ptr noundef nonnull %6) #6
  br label %25

23:                                               ; preds = %.lr.ph
  %24 = call i32 @SSL_get_sigalgs(ptr noundef %1, i32 noundef %.03552, ptr noundef nonnull %5, ptr noundef nonnull %4, ptr noundef null, ptr noundef nonnull %7, ptr noundef nonnull %6) #6
  br label %25

25:                                               ; preds = %23, %21
  %.not38 = icmp eq i32 %.03552, 0
  br i1 %.not38, label %28, label %26

26:                                               ; preds = %25
  %27 = call i32 @BIO_puts(ptr noundef %0, ptr noundef nonnull @.str.18) #6
  br label %28

28:                                               ; preds = %26, %25
  %29 = load i8, ptr %7, align 1, !tbaa !15
  %30 = zext i8 %29 to i16
  %31 = load i8, ptr %6, align 1, !tbaa !15
  %32 = zext i8 %31 to i16
  %33 = shl nuw i16 %32, 8
  %trunc = or disjoint i16 %33, %30
  switch i16 %trunc, label %46 [
    i16 2057, label %34
    i16 2058, label %36
    i16 2059, label %38
    i16 2074, label %40
    i16 2075, label %42
    i16 2076, label %44
  ]

34:                                               ; preds = %28
  %35 = call i32 @BIO_puts(ptr noundef %0, ptr noundef nonnull @.str.136) #6
  br label %.thread57

36:                                               ; preds = %28
  %37 = call i32 @BIO_puts(ptr noundef %0, ptr noundef nonnull @.str.137) #6
  br label %.thread57

38:                                               ; preds = %28
  %39 = call i32 @BIO_puts(ptr noundef %0, ptr noundef nonnull @.str.138) #6
  br label %.thread57

40:                                               ; preds = %28
  %41 = call i32 @BIO_puts(ptr noundef %0, ptr noundef nonnull @.str.139) #6
  br label %.thread57

42:                                               ; preds = %28
  %43 = call i32 @BIO_puts(ptr noundef %0, ptr noundef nonnull @.str.140) #6
  br label %.thread57

44:                                               ; preds = %28
  %45 = call i32 @BIO_puts(ptr noundef %0, ptr noundef nonnull @.str.141) #6
  br label %.thread57

46:                                               ; preds = %28
  %47 = load i32, ptr %5, align 4, !tbaa !22
  switch i32 %47, label %get_sigtype.exit [
    i32 6, label %.thread53
    i32 912, label %48
    i32 116, label %49
    i32 408, label %50
    i32 1087, label %51
    i32 1088, label %52
    i32 811, label %53
    i32 979, label %54
    i32 980, label %55
  ]

48:                                               ; preds = %46
  br label %.thread53

49:                                               ; preds = %46
  br label %.thread53

50:                                               ; preds = %46
  br label %.thread53

51:                                               ; preds = %46
  br label %.thread53

52:                                               ; preds = %46
  br label %.thread53

53:                                               ; preds = %46
  br label %.thread53

54:                                               ; preds = %46
  br label %.thread53

55:                                               ; preds = %46
  br label %.thread53

get_sigtype.exit:                                 ; preds = %46
  %56 = call ptr @OBJ_nid2sn(i32 noundef %47) #6
  %.not39 = icmp eq ptr %56, null
  br i1 %.not39, label %57, label %.thread53

57:                                               ; preds = %get_sigtype.exit
  %58 = load i8, ptr %7, align 1, !tbaa !15
  %59 = zext i8 %58 to i32
  %60 = call i32 (ptr, ptr, ...) @BIO_printf(ptr noundef %0, ptr noundef nonnull @.str.142, i32 noundef %59) #6
  %61 = load i32, ptr %4, align 4, !tbaa !22
  %.not40 = icmp eq i32 %61, 0
  br i1 %.not40, label %68, label %64

.thread53:                                        ; preds = %get_sigtype.exit, %55, %54, %53, %52, %51, %50, %49, %48, %46
  %.0.i49 = phi ptr [ %56, %get_sigtype.exit ], [ @.str.145, %46 ], [ @.str.146, %48 ], [ @.str.147, %49 ], [ @.str.148, %50 ], [ @.str.149, %51 ], [ @.str.150, %52 ], [ @.str.151, %53 ], [ @.str.152, %54 ], [ @.str.153, %55 ]
  %62 = call i32 (ptr, ptr, ...) @BIO_printf(ptr noundef %0, ptr noundef nonnull @.str.25, ptr noundef nonnull %.0.i49) #6
  %63 = load i32, ptr %4, align 4, !tbaa !22
  %.not4055 = icmp eq i32 %63, 0
  br i1 %.not4055, label %.thread57, label %64

64:                                               ; preds = %.thread53, %57
  %65 = phi i32 [ %63, %.thread53 ], [ %61, %57 ]
  %66 = call ptr @OBJ_nid2sn(i32 noundef %65) #6
  %67 = call i32 (ptr, ptr, ...) @BIO_printf(ptr noundef %0, ptr noundef nonnull @.str.143, ptr noundef %66) #6
  br label %.thread57

68:                                               ; preds = %57
  %69 = load i8, ptr %6, align 1, !tbaa !15
  %70 = zext i8 %69 to i32
  %71 = call i32 (ptr, ptr, ...) @BIO_printf(ptr noundef %0, ptr noundef nonnull @.str.144, i32 noundef %70) #6
  br label %.thread57

.thread57:                                        ; preds = %.thread53, %64, %68, %44, %42, %40, %38, %36, %34
  call void @llvm.lifetime.end.p0(i64 1, ptr nonnull %7) #6
  call void @llvm.lifetime.end.p0(i64 1, ptr nonnull %6) #6
  call void @llvm.lifetime.end.p0(i64 4, ptr nonnull %5) #6
  call void @llvm.lifetime.end.p0(i64 4, ptr nonnull %4) #6
  %72 = add nuw nsw i32 %.03552, 1
  %exitcond.not = icmp eq i32 %72, %.0344246
  br i1 %exitcond.not, label %._crit_edge, label %.lr.ph, !llvm.loop !23

._crit_edge:                                      ; preds = %.thread57, %18
  %73 = call i32 @BIO_puts(ptr noundef %0, ptr noundef nonnull @.str.1) #6
  br label %74

74:                                               ; preds = %.thread, %9, %._crit_edge
  ret void
}